target datalayout = "e-m:e-p270:32:32-p271:32:32-p272:64:64-i64:64-i128:128-f80:128-n8:16:32:64-S128"
target triple = "x86_64-pc-linux-gnu"

%struct.mi_segment_s = type { %struct.mi_memid_s, i8, i8, i64, ptr, ptr, ptr, i8, i8, i64, i64, i64, i64, i64, i64, ptr, ptr, i64, i64, i32, [1 x %struct.mi_page_s] }
%struct.mi_memid_s = type { %union.anon, i8, i8, i8, i32 }
%union.anon = type { %struct.mi_memid_os_info }
%struct.mi_memid_os_info = type { ptr, i64 }
%struct.mi_page_s = type { i8, i8, i16, i16, %union.mi_page_flags_s, i8, ptr, ptr, i16, i8, i8, i64, ptr, i64, i64, ptr, ptr }
%union.mi_page_flags_s = type { i8 }
%union.pthread_mutex_t = type { %struct.__pthread_mutex_s }
%struct.__pthread_mutex_s = type { i32, i32, i32, i32, i32, i16, i16, %struct.__pthread_internal_list }
%struct.__pthread_internal_list = type { ptr, ptr }
%struct.mi_subproc_s = type { i64, i64, %union.pthread_mutex_t, %union.pthread_mutex_t, ptr, ptr, %struct.mi_memid_s }

@.str.17 = private unnamed_addr constant [41 x i8] c"internal error: lock cannot be acquired\0A\00", align 1

; Function Attrs: inlinehint nounwind uwtable
define internal void @mi_lock_release(ptr noundef %0) #4 {
  %2 = alloca ptr, align 8
  store ptr %0, ptr %2, align 8, !tbaa !53
  %3 = load ptr, ptr %2, align 8, !tbaa !53
  %4 = call i32 @pthread_mutex_unlock(ptr noundef %3) #14
  ret void
}

; Function Attrs: inlinehint nounwind uwtable
define internal void @mi_lock_acquire(ptr noundef %0) #4 {
  %2 = alloca ptr, align 8
  %3 = alloca i32, align 4
  store ptr %0, ptr %2, align 8, !tbaa !53
  call void @llvm.lifetime.start.p0(i64 4, ptr %3) #13
  %4 = load ptr, ptr %2, align 8, !tbaa !53
  %5 = call i32 @pthread_mutex_lock(ptr noundef %4) #14
  store i32 %5, ptr %3, align 4, !tbaa !52
  %6 = load i32, ptr %3, align 4, !tbaa !52
  %7 = icmp ne i32 %6, 0
  br i1 %7, label %8, label %10

8:                                                ; preds = %1
  %9 = load i32, ptr %3, align 4, !tbaa !52
  call void (i32, ptr, ...) @_mi_error_message(i32 noundef %9, ptr noundef @.str.17) #12
  br label %10

10:                                               ; preds = %8, %1
  call void @llvm.lifetime.end.p0(i64 4, ptr %3) #13
  ret void
}

; Function Attrs: nounwind uwtable
define internal void @mi_arena_segment_os_mark_abandoned(ptr noundef %0) #0 {
  %2 = alloca ptr, align 8
  %3 = alloca ptr, align 8
  %4 = alloca i8, align 1
  %5 = alloca ptr, align 8
  %6 = alloca i64, align 8
  %7 = alloca i64, align 8
  %8 = alloca i64, align 8
  %9 = alloca i64, align 8
  store ptr %0, ptr %2, align 8, !tbaa !3
  call void @llvm.lifetime.start.p0(i64 8, ptr %3) #13
  %10 = load ptr, ptr %2, align 8, !tbaa !3
  %11 = getelementptr inbounds nuw %struct.mi_segment_s, ptr %10, i32 0, i32 4
  %12 = load ptr, ptr %11, align 8, !tbaa !24
  store ptr %12, ptr %3, align 8, !tbaa !25
  call void @llvm.lifetime.start.p0(i64 1, ptr %4) #13
  %13 = load ptr, ptr %3, align 8, !tbaa !25
  %14 = getelementptr inbounds nuw %struct.mi_subproc_s, ptr %13, i32 0, i32 2
  call void @mi_lock_acquire(ptr noundef %14) #12
  store i8 1, ptr %4, align 1, !tbaa !21
  br label %15

15:                                               ; preds = %50, %1
  %16 = load i8, ptr %4, align 1, !tbaa !21, !range !22, !noundef !23
  %17 = trunc i8 %16 to i1
  br i1 %17, label %19, label %18

18:                                               ; preds = %15
  call void @llvm.lifetime.end.p0(i64 1, ptr %4) #13
  br label %53

19:                                               ; preds = %15
  call void @llvm.lifetime.start.p0(i64 8, ptr %5) #13
  %20 = load ptr, ptr %3, align 8, !tbaa !25
  %21 = getelementptr inbounds nuw %struct.mi_subproc_s, ptr %20, i32 0, i32 5
  %22 = load ptr, ptr %21, align 8, !tbaa !30
  store ptr %22, ptr %5, align 8, !tbaa !3
  %23 = load ptr, ptr %5, align 8, !tbaa !3
  %24 = icmp ne ptr %23, null
  br i1 %24, label %25, label %29

25:                                               ; preds = %19
  %26 = load ptr, ptr %2, align 8, !tbaa !3
  %27 = load ptr, ptr %5, align 8, !tbaa !3
  %28 = getelementptr inbounds nuw %struct.mi_segment_s, ptr %27, i32 0, i32 15
  store ptr %26, ptr %28, align 8, !tbaa !26
  br label %33

29:                                               ; preds = %19
  %30 = load ptr, ptr %2, align 8, !tbaa !3
  %31 = load ptr, ptr %3, align 8, !tbaa !25
  %32 = getelementptr inbounds nuw %struct.mi_subproc_s, ptr %31, i32 0, i32 4
  store ptr %30, ptr %32, align 8, !tbaa !28
  br label %33

33:                                               ; preds = %29, %25
  %34 = load ptr, ptr %2, align 8, !tbaa !3
  %35 = load ptr, ptr %3, align 8, !tbaa !25
  %36 = getelementptr inbounds nuw %struct.mi_subproc_s, ptr %35, i32 0, i32 5
  store ptr %34, ptr %36, align 8, !tbaa !30
  %37 = load ptr, ptr %5, align 8, !tbaa !3
  %38 = load ptr, ptr %2, align 8, !tbaa !3
  %39 = getelementptr inbounds nuw %struct.mi_segment_s, ptr %38, i32 0, i32 16
  store ptr %37, ptr %39, align 8, !tbaa !27
  %40 = load ptr, ptr %2, align 8, !tbaa !3
  %41 = getelementptr inbounds nuw %struct.mi_segment_s, ptr %40, i32 0, i32 15
  store ptr null, ptr %41, align 8, !tbaa !26
  %42 = load ptr, ptr %3, align 8, !tbaa !25
  %43 = getelementptr inbounds nuw %struct.mi_subproc_s, ptr %42, i32 0, i32 1
  store i64 1, ptr %6, align 8, !tbaa !15
  %44 = load i64, ptr %6, align 8
  %45 = atomicrmw add ptr %43, i64 %44 monotonic, align 8
  store i64 %45, ptr %7, align 8
  %46 = load ptr, ptr %3, align 8, !tbaa !25
  %47 = getelementptr inbounds nuw %struct.mi_subproc_s, ptr %46, i32 0, i32 0
  store i64 1, ptr %8, align 8, !tbaa !15
  %48 = load i64, ptr %8, align 8
  %49 = atomicrmw add ptr %47, i64 %48 monotonic, align 8
  store i64 %49, ptr %9, align 8
  call void @llvm.lifetime.end.p0(i64 8, ptr %5) #13
  br label %50

50:                                               ; preds = %33
  %51 = load ptr, ptr %3, align 8, !tbaa !25
  %52 = getelementptr inbounds nuw %struct.mi_subproc_s, ptr %51, i32 0, i32 2
  call void @mi_lock_release(ptr noundef %52) #12
  store i8 0, ptr %4, align 1, !tbaa !21
  br label %15, !llvm.loop !34

53:                                               ; preds = %18
  call void @llvm.lifetime.end.p0(i64 8, ptr %3) #13
  ret void
}